target datalayout = "e-m:e-p270:32:32-p271:32:32-p272:64:64-i64:64-i128:128-f80:128-n8:16:32:64-S128"
target triple = "x86_64-pc-linux-gnu"

; Function Attrs: nounwind uwtable
define hidden i32 @mbedtls_chachapoly_auth_decrypt(ptr noundef %0, i64 noundef %1, ptr noundef %2, ptr noundef %3, i64 noundef %4, ptr noundef %5, ptr noundef %6, ptr noundef %7) #0 {
  %9 = alloca i32, align 4
  %10 = alloca ptr, align 8
  %11 = alloca i64, align 8
  %12 = alloca ptr, align 8
  %13 = alloca ptr, align 8
  %14 = alloca i64, align 8
  %15 = alloca ptr, align 8
  %16 = alloca ptr, align 8
  %17 = alloca ptr, align 8
  %18 = alloca i32, align 4
  %19 = alloca [16 x i8], align 16
  %20 = alloca i32, align 4
  %21 = alloca i32, align 4
  store ptr %0, ptr %10, align 8, !tbaa !3
  store i64 %1, ptr %11, align 8, !tbaa !20
  store ptr %2, ptr %12, align 8, !tbaa !17
  store ptr %3, ptr %13, align 8, !tbaa !17
  store i64 %4, ptr %14, align 8, !tbaa !20
  store ptr %5, ptr %15, align 8, !tbaa !17
  store ptr %6, ptr %16, align 8, !tbaa !17
  store ptr %7, ptr %17, align 8, !tbaa !17
  call void @llvm.lifetime.start.p0(i64 4, ptr %18) #7
  store i32 -110, ptr %18, align 4, !tbaa !19
  call void @llvm.lifetime.start.p0(i64 16, ptr %19) #7
  call void @llvm.lifetime.start.p0(i64 4, ptr %20) #7
  %22 = load ptr, ptr %10, align 8, !tbaa !3
  %23 = load i64, ptr %11, align 8, !tbaa !20
  %24 = load ptr, ptr %12, align 8, !tbaa !17
  %25 = load ptr, ptr %13, align 8, !tbaa !17
  %26 = load i64, ptr %14, align 8, !tbaa !20
  %27 = load ptr, ptr %16, align 8, !tbaa !17
  %28 = load ptr, ptr %17, align 8, !tbaa !17
  %29 = getelementptr inbounds [16 x i8], ptr %19, i64 0, i64 0
  %30 = call i32 @chachapoly_crypt_and_tag(ptr noundef %22, i32 noundef 1, i64 noundef %23, ptr noundef %24, ptr noundef %25, i64 noundef %26, ptr noundef %27, ptr noundef %28, ptr noundef %29)
  store i32 %30, ptr %18, align 4, !tbaa !19
  %31 = icmp ne i32 %30, 0
  br i1 %31, label %32, label %34

32:                                               ; preds = %8
  %33 = load i32, ptr %18, align 4, !tbaa !19
  store i32 %33, ptr %9, align 4
  store i32 1, ptr %21, align 4
  br label %44

34:                                               ; preds = %8
  %35 = load ptr, ptr %15, align 8, !tbaa !17
  %36 = getelementptr inbounds [16 x i8], ptr %19, i64 0, i64 0
  %37 = call i32 @mbedtls_ct_memcmp(ptr noundef %35, ptr noundef %36, i64 noundef 16)
  store i32 %37, ptr %20, align 4, !tbaa !19
  %38 = load i32, ptr %20, align 4, !tbaa !19
  %39 = icmp ne i32 %38, 0
  br i1 %39, label %40, label %43

40:                                               ; preds = %34
  %41 = load ptr, ptr %17, align 8, !tbaa !17
  %42 = load i64, ptr %11, align 8, !tbaa !20
  call void @mbedtls_platform_zeroize(ptr noundef %41, i64 noundef %42)
  store i32 -86, ptr %9, align 4
  store i32 1, ptr %21, align 4
  br label %44

43:                                               ; preds = %34
  store i32 0, ptr %9, align 4
  store i32 1, ptr %21, align 4
  br label %44

44:                                               ; preds = %43, %40, %32
  call void @llvm.lifetime.end.p0(i64 4, ptr %20) #7
  call void @llvm.lifetime.end.p0(i64 16, ptr %19) #7
  call void @llvm.lifetime.end.p0(i64 4, ptr %18) #7
  %45 = load i32, ptr %9, align 4
  ret i32 %45
}