; Function Attrs: nounwind uwtable
define hidden i32 @mbedtls_chachapoly_auth_decrypt(ptr noundef %0, i64 noundef %1, ptr noundef %2, ptr noundef %3, i64 noundef %4, ptr noundef %5, ptr noundef %6, ptr noundef %7) local_unnamed_addr #0 {
  %9 = alloca [16 x i8], align 16
  call void @llvm.lifetime.start.p0(i64 16, ptr nonnull %9) #7
  %10 = call fastcc i32 @chachapoly_crypt_and_tag(ptr noundef %0, i32 noundef 1, i64 noundef %1, ptr noundef %2, ptr noundef %3, i64 noundef %4, ptr noundef %6, ptr noundef %7, ptr noundef nonnull %9)
  %.not = icmp eq i32 %10, 0
  br i1 %.not, label %11, label %14

11:                                               ; preds = %8
  %12 = call i32 @mbedtls_ct_memcmp(ptr noundef %5, ptr noundef nonnull %9, i64 noundef 16) #7
  %.not13 = icmp eq i32 %12, 0
  br i1 %.not13, label %14, label %13

13:                                               ; preds = %11
  call void @mbedtls_platform_zeroize(ptr noundef %7, i64 noundef %1) #7
  br label %14

14:                                               ; preds = %11, %8, %13
  %.0 = phi i32 [ -86, %13 ], [ %10, %8 ], [ 0, %11 ]
  call void @llvm.lifetime.end.p0(i64 16, ptr nonnull %9) #7
  ret i32 %.0
}